target datalayout = "e-m:e-p270:32:32-p271:32:32-p272:64:64-i64:64-i128:128-f80:128-n8:16:32:64-S128"
target triple = "x86_64-pc-linux-gnu"

%struct.CRYPTO_REF_COUNT = type { i32 }
%struct.bio_st = type { ptr, ptr, ptr, ptr, ptr, i32, i32, i32, i32, i32, ptr, ptr, ptr, %struct.CRYPTO_REF_COUNT, i64, i64, %struct.crypto_ex_data_st }
%struct.crypto_ex_data_st = type { ptr, ptr }
%struct.bio_method_st = type { i32, ptr, ptr, ptr, ptr, ptr, ptr, ptr, ptr, ptr, ptr, ptr, ptr, ptr }

@.str = private unnamed_addr constant [32 x i8] c"../openssl/crypto/bio/bio_lib.c\00", align 1
@__func__.BIO_puts = private unnamed_addr constant [9 x i8] c"BIO_puts\00", align 1

; Function Attrs: nounwind uwtable
define internal i64 @bio_call_callback(ptr noundef %0, i32 noundef %1, ptr noundef %2, i64 noundef %3, i32 noundef %4, i64 noundef %5, i64 noundef %6, ptr noundef %7) #0 {
  %9 = alloca i64, align 8
  %10 = alloca ptr, align 8
  %11 = alloca i32, align 4
  %12 = alloca ptr, align 8
  %13 = alloca i64, align 8
  %14 = alloca i32, align 4
  %15 = alloca i64, align 8
  %16 = alloca i64, align 8
  %17 = alloca ptr, align 8
  %18 = alloca i64, align 8
  %19 = alloca i32, align 4
  %20 = alloca i32, align 4
  store ptr %0, ptr %10, align 8, !tbaa !10
  store i32 %1, ptr %11, align 4, !tbaa !26
  store ptr %2, ptr %12, align 8, !tbaa !33
  store i64 %3, ptr %13, align 8, !tbaa !34
  store i32 %4, ptr %14, align 4, !tbaa !26
  store i64 %5, ptr %15, align 8, !tbaa !34
  store i64 %6, ptr %16, align 8, !tbaa !34
  store ptr %7, ptr %17, align 8, !tbaa !35
  call void @llvm.lifetime.start.p0(i64 8, ptr %18) #5
  %21 = load i64, ptr %16, align 8, !tbaa !34
  store i64 %21, ptr %18, align 8, !tbaa !34
  call void @llvm.lifetime.start.p0(i64 4, ptr %19) #5
  %22 = load ptr, ptr %10, align 8, !tbaa !10
  %23 = getelementptr inbounds nuw %struct.bio_st, ptr %22, i32 0, i32 3
  %24 = load ptr, ptr %23, align 8, !tbaa !29
  %25 = icmp ne ptr %24, null
  br i1 %25, label %26, label %40

26:                                               ; preds = %8
  %27 = load ptr, ptr %10, align 8, !tbaa !10
  %28 = getelementptr inbounds nuw %struct.bio_st, ptr %27, i32 0, i32 3
  %29 = load ptr, ptr %28, align 8, !tbaa !29
  %30 = load ptr, ptr %10, align 8, !tbaa !10
  %31 = load i32, ptr %11, align 4, !tbaa !26
  %32 = load ptr, ptr %12, align 8, !tbaa !33
  %33 = load i64, ptr %13, align 8, !tbaa !34
  %34 = load i32, ptr %14, align 4, !tbaa !26
  %35 = load i64, ptr %15, align 8, !tbaa !34
  %36 = load i64, ptr %16, align 8, !tbaa !34
  %37 = trunc i64 %36 to i32
  %38 = load ptr, ptr %17, align 8, !tbaa !35
  %39 = call i64 %29(ptr noundef %30, i32 noundef %31, ptr noundef %32, i64 noundef %33, i32 noundef %34, i64 noundef %35, i32 noundef %37, ptr noundef %38)
  store i64 %39, ptr %9, align 8
  store i32 1, ptr %20, align 4
  br label %101

40:                                               ; preds = %8
  %41 = load i32, ptr %11, align 4, !tbaa !26
  %42 = and i32 %41, -129
  store i32 %42, ptr %19, align 4, !tbaa !26
  %43 = load i32, ptr %19, align 4, !tbaa !26
  %44 = icmp eq i32 %43, 2
  br i1 %44, label %51, label %45

45:                                               ; preds = %40
  %46 = load i32, ptr %19, align 4, !tbaa !26
  %47 = icmp eq i32 %46, 3
  br i1 %47, label %51, label %48

48:                                               ; preds = %45
  %49 = load i32, ptr %19, align 4, !tbaa !26
  %50 = icmp eq i32 %49, 5
  br i1 %50, label %51, label %58

51:                                               ; preds = %48, %45, %40
  %52 = load i64, ptr %13, align 8, !tbaa !34
  %53 = icmp ugt i64 %52, 2147483647
  br i1 %53, label %54, label %55

54:                                               ; preds = %51
  store i64 -1, ptr %9, align 8
  store i32 1, ptr %20, align 4
  br label %101

55:                                               ; preds = %51
  %56 = load i64, ptr %13, align 8, !tbaa !34
  %57 = trunc i64 %56 to i32
  store i32 %57, ptr %14, align 4, !tbaa !26
  br label %58

58:                                               ; preds = %55, %48
  %59 = load i64, ptr %16, align 8, !tbaa !34
  %60 = icmp sgt i64 %59, 0
  br i1 %60, label %61, label %76

61:                                               ; preds = %58
  %62 = load i32, ptr %11, align 4, !tbaa !26
  %63 = and i32 %62, 128
  %64 = icmp ne i32 %63, 0
  br i1 %64, label %65, label %76

65:                                               ; preds = %61
  %66 = load i32, ptr %19, align 4, !tbaa !26
  %67 = icmp ne i32 %66, 6
  br i1 %67, label %68, label %76

68:                                               ; preds = %65
  %69 = load ptr, ptr %17, align 8, !tbaa !35
  %70 = load i64, ptr %69, align 8, !tbaa !34
  %71 = icmp ugt i64 %70, 2147483647
  br i1 %71, label %72, label %73

72:                                               ; preds = %68
  store i64 -1, ptr %9, align 8
  store i32 1, ptr %20, align 4
  br label %101

73:                                               ; preds = %68
  %74 = load ptr, ptr %17, align 8, !tbaa !35
  %75 = load i64, ptr %74, align 8, !tbaa !34
  store i64 %75, ptr %16, align 8, !tbaa !34
  br label %76

76:                                               ; preds = %73, %65, %61, %58
  %77 = load ptr, ptr %10, align 8, !tbaa !10
  %78 = getelementptr inbounds nuw %struct.bio_st, ptr %77, i32 0, i32 2
  %79 = load ptr, ptr %78, align 8, !tbaa !28
  %80 = load ptr, ptr %10, align 8, !tbaa !10
  %81 = load i32, ptr %11, align 4, !tbaa !26
  %82 = load ptr, ptr %12, align 8, !tbaa !33
  %83 = load i32, ptr %14, align 4, !tbaa !26
  %84 = load i64, ptr %15, align 8, !tbaa !34
  %85 = load i64, ptr %16, align 8, !tbaa !34
  %86 = call i64 %79(ptr noundef %80, i32 noundef %81, ptr noundef %82, i32 noundef %83, i64 noundef %84, i64 noundef %85)
  store i64 %86, ptr %18, align 8, !tbaa !34
  %87 = load i64, ptr %18, align 8, !tbaa !34
  %88 = icmp sgt i64 %87, 0
  br i1 %88, label %89, label %99

89:                                               ; preds = %76
  %90 = load i32, ptr %11, align 4, !tbaa !26
  %91 = and i32 %90, 128
  %92 = icmp ne i32 %91, 0
  br i1 %92, label %93, label %99

93:                                               ; preds = %89
  %94 = load i32, ptr %19, align 4, !tbaa !26
  %95 = icmp ne i32 %94, 6
  br i1 %95, label %96, label %99

96:                                               ; preds = %93
  %97 = load i64, ptr %18, align 8, !tbaa !34
  %98 = load ptr, ptr %17, align 8, !tbaa !35
  store i64 %97, ptr %98, align 8, !tbaa !34
  store i64 1, ptr %18, align 8, !tbaa !34
  br label %99

99:                                               ; preds = %96, %93, %89, %76
  %100 = load i64, ptr %18, align 8, !tbaa !34
  store i64 %100, ptr %9, align 8
  store i32 1, ptr %20, align 4
  br label %101

101:                                              ; preds = %99, %72, %54, %26
  call void @llvm.lifetime.end.p0(i64 4, ptr %19) #5
  call void @llvm.lifetime.end.p0(i64 8, ptr %18) #5
  %102 = load i64, ptr %9, align 8
  ret i64 %102
}

; Function Attrs: nounwind uwtable
define i32 @BIO_puts(ptr noundef %0, ptr noundef %1) #0 {
  %3 = alloca i32, align 4
  %4 = alloca ptr, align 8
  %5 = alloca ptr, align 8
  %6 = alloca i32, align 4
  %7 = alloca i64, align 8
  %8 = alloca i32, align 4
  store ptr %0, ptr %4, align 8, !tbaa !10
  store ptr %1, ptr %5, align 8, !tbaa !33
  call void @llvm.lifetime.start.p0(i64 4, ptr %6) #5
  call void @llvm.lifetime.start.p0(i64 8, ptr %7) #5
  store i64 0, ptr %7, align 8, !tbaa !34
  %9 = load ptr, ptr %4, align 8, !tbaa !10
  %10 = icmp eq ptr %9, null
  br i1 %10, label %11, label %12

11:                                               ; preds = %2
  call void @ERR_new()
  call void @ERR_set_debug(ptr noundef @.str, i32 noundef 504, ptr noundef @__func__.BIO_puts)
  call void (i32, i32, ptr, ...) @ERR_set_error(i32 noundef 32, i32 noundef 786690, ptr noundef null)
  store i32 -1, ptr %3, align 4
  store i32 1, ptr %8, align 4
  br label %101

12:                                               ; preds = %2
  %13 = load ptr, ptr %4, align 8, !tbaa !10
  %14 = getelementptr inbounds nuw %struct.bio_st, ptr %13, i32 0, i32 1
  %15 = load ptr, ptr %14, align 8, !tbaa !20
  %16 = icmp eq ptr %15, null
  br i1 %16, label %24, label %17

17:                                               ; preds = %12
  %18 = load ptr, ptr %4, align 8, !tbaa !10
  %19 = getelementptr inbounds nuw %struct.bio_st, ptr %18, i32 0, i32 1
  %20 = load ptr, ptr %19, align 8, !tbaa !20
  %21 = getelementptr inbounds nuw %struct.bio_method_st, ptr %20, i32 0, i32 6
  %22 = load ptr, ptr %21, align 8, !tbaa !59
  %23 = icmp eq ptr %22, null
  br i1 %23, label %24, label %25

24:                                               ; preds = %17, %12
  call void @ERR_new()
  call void @ERR_set_debug(ptr noundef @.str, i32 noundef 508, ptr noundef @__func__.BIO_puts)
  call void (i32, i32, ptr, ...) @ERR_set_error(i32 noundef 32, i32 noundef 121, ptr noundef null)
  store i32 -2, ptr %3, align 4
  store i32 1, ptr %8, align 4
  br label %101

25:                                               ; preds = %17
  %26 = load ptr, ptr %4, align 8, !tbaa !10
  %27 = getelementptr inbounds nuw %struct.bio_st, ptr %26, i32 0, i32 2
  %28 = load ptr, ptr %27, align 8, !tbaa !28
  %29 = icmp ne ptr %28, null
  br i1 %29, label %35, label %30

30:                                               ; preds = %25
  %31 = load ptr, ptr %4, align 8, !tbaa !10
  %32 = getelementptr inbounds nuw %struct.bio_st, ptr %31, i32 0, i32 3
  %33 = load ptr, ptr %32, align 8, !tbaa !29
  %34 = icmp ne ptr %33, null
  br i1 %34, label %35, label %45

35:                                               ; preds = %30, %25
  %36 = load ptr, ptr %4, align 8, !tbaa !10
  %37 = load ptr, ptr %5, align 8, !tbaa !33
  %38 = call i64 @bio_call_callback(ptr noundef %36, i32 noundef 4, ptr noundef %37, i64 noundef 0, i32 noundef 0, i64 noundef 0, i64 noundef 1, ptr noundef null)
  %39 = trunc i64 %38 to i32
  store i32 %39, ptr %6, align 4, !tbaa !26
  %40 = load i32, ptr %6, align 4, !tbaa !26
  %41 = icmp sle i32 %40, 0
  br i1 %41, label %42, label %44

42:                                               ; preds = %35
  %43 = load i32, ptr %6, align 4, !tbaa !26
  store i32 %43, ptr %3, align 4
  store i32 1, ptr %8, align 4
  br label %101

44:                                               ; preds = %35
  br label %45

45:                                               ; preds = %44, %30
  %46 = load ptr, ptr %4, align 8, !tbaa !10
  %47 = getelementptr inbounds nuw %struct.bio_st, ptr %46, i32 0, i32 5
  %48 = load i32, ptr %47, align 8, !tbaa !24
  %49 = icmp ne i32 %48, 0
  br i1 %49, label %51, label %50

50:                                               ; preds = %45
  call void @ERR_new()
  call void @ERR_set_debug(ptr noundef @.str, i32 noundef 519, ptr noundef @__func__.BIO_puts)
  call void (i32, i32, ptr, ...) @ERR_set_error(i32 noundef 32, i32 noundef 120, ptr noundef null)
  store i32 -1, ptr %3, align 4
  store i32 1, ptr %8, align 4
  br label %101

51:                                               ; preds = %45
  %52 = load ptr, ptr %4, align 8, !tbaa !10
  %53 = getelementptr inbounds nuw %struct.bio_st, ptr %52, i32 0, i32 1
  %54 = load ptr, ptr %53, align 8, !tbaa !20
  %55 = getelementptr inbounds nuw %struct.bio_method_st, ptr %54, i32 0, i32 6
  %56 = load ptr, ptr %55, align 8, !tbaa !59
  %57 = load ptr, ptr %4, align 8, !tbaa !10
  %58 = load ptr, ptr %5, align 8, !tbaa !33
  %59 = call i32 %56(ptr noundef %57, ptr noundef %58)
  store i32 %59, ptr %6, align 4, !tbaa !26
  %60 = load i32, ptr %6, align 4, !tbaa !26
  %61 = icmp sgt i32 %60, 0
  br i1 %61, label %62, label %71

62:                                               ; preds = %51
  %63 = load i32, ptr %6, align 4, !tbaa !26
  %64 = sext i32 %63 to i64
  %65 = load ptr, ptr %4, align 8, !tbaa !10
  %66 = getelementptr inbounds nuw %struct.bio_st, ptr %65, i32 0, i32 15
  %67 = load i64, ptr %66, align 8, !tbaa !45
  %68 = add i64 %67, %64
  store i64 %68, ptr %66, align 8, !tbaa !45
  %69 = load i32, ptr %6, align 4, !tbaa !26
  %70 = sext i32 %69 to i64
  store i64 %70, ptr %7, align 8, !tbaa !34
  store i32 1, ptr %6, align 4, !tbaa !26
  br label %71

71:                                               ; preds = %62, %51
  %72 = load ptr, ptr %4, align 8, !tbaa !10
  %73 = getelementptr inbounds nuw %struct.bio_st, ptr %72, i32 0, i32 2
  %74 = load ptr, ptr %73, align 8, !tbaa !28
  %75 = icmp ne ptr %74, null
  br i1 %75, label %81, label %76

76:                                               ; preds = %71
  %77 = load ptr, ptr %4, align 8, !tbaa !10
  %78 = getelementptr inbounds nuw %struct.bio_st, ptr %77, i32 0, i32 3
  %79 = load ptr, ptr %78, align 8, !tbaa !29
  %80 = icmp ne ptr %79, null
  br i1 %80, label %81, label %88

81:                                               ; preds = %76, %71
  %82 = load ptr, ptr %4, align 8, !tbaa !10
  %83 = load ptr, ptr %5, align 8, !tbaa !33
  %84 = load i32, ptr %6, align 4, !tbaa !26
  %85 = sext i32 %84 to i64
  %86 = call i64 @bio_call_callback(ptr noundef %82, i32 noundef 132, ptr noundef %83, i64 noundef 0, i32 noundef 0, i64 noundef 0, i64 noundef %85, ptr noundef %7)
  %87 = trunc i64 %86 to i32
  store i32 %87, ptr %6, align 4, !tbaa !26
  br label %88

88:                                               ; preds = %81, %76
  %89 = load i32, ptr %6, align 4, !tbaa !26
  %90 = icmp sgt i32 %89, 0
  br i1 %90, label %91, label %99

91:                                               ; preds = %88
  %92 = load i64, ptr %7, align 8, !tbaa !34
  %93 = icmp ugt i64 %92, 2147483647
  br i1 %93, label %94, label %95

94:                                               ; preds = %91
  call void @ERR_new()
  call void @ERR_set_debug(ptr noundef @.str, i32 noundef 537, ptr noundef @__func__.BIO_puts)
  call void (i32, i32, ptr, ...) @ERR_set_error(i32 noundef 32, i32 noundef 102, ptr noundef null)
  store i32 -1, ptr %6, align 4, !tbaa !26
  br label %98

95:                                               ; preds = %91
  %96 = load i64, ptr %7, align 8, !tbaa !34
  %97 = trunc i64 %96 to i32
  store i32 %97, ptr %6, align 4, !tbaa !26
  br label %98

98:                                               ; preds = %95, %94
  br label %99

99:                                               ; preds = %98, %88
  %100 = load i32, ptr %6, align 4, !tbaa !26
  store i32 %100, ptr %3, align 4
  store i32 1, ptr %8, align 4
  br label %101

101:                                              ; preds = %99, %50, %42, %24, %11
  call void @llvm.lifetime.end.p0(i64 8, ptr %7) #5
  call void @llvm.lifetime.end.p0(i64 4, ptr %6) #5
  %102 = load i32, ptr %3, align 4
  ret i32 %102
}