; Function Attrs: nounwind uwtable
define i32 @BIO_puts(ptr noundef %0, ptr noundef %1) local_unnamed_addr #0 {
  %3 = alloca i64, align 8
  call void @llvm.lifetime.start.p0(i64 8, ptr nonnull %3) #14
  store i64 0, ptr %3, align 8, !tbaa !32
  %4 = icmp eq ptr %0, null
  br i1 %4, label %5, label %6

5:                                                ; preds = %2
  tail call void @ERR_new() #14
  tail call void @ERR_set_debug(ptr noundef nonnull @.str, i32 noundef 504, ptr noundef nonnull @__func__.BIO_puts) #14
  tail call void (i32, i32, ptr, ...) @ERR_set_error(i32 noundef 32, i32 noundef 786690, ptr noundef null) #14
  br label %65

6:                                                ; preds = %2
  %7 = getelementptr inbounds nuw i8, ptr %0, i64 8
  %8 = load ptr, ptr %7, align 8, !tbaa !17
  %9 = icmp eq ptr %8, null
  br i1 %9, label %14, label %10

10:                                               ; preds = %6
  %11 = getelementptr inbounds nuw i8, ptr %8, i64 48
  %12 = load ptr, ptr %11, align 8, !tbaa !47
  %13 = icmp eq ptr %12, null
  br i1 %13, label %14, label %15

14:                                               ; preds = %10, %6
  tail call void @ERR_new() #14
  tail call void @ERR_set_debug(ptr noundef nonnull @.str, i32 noundef 508, ptr noundef nonnull @__func__.BIO_puts) #14
  tail call void (i32, i32, ptr, ...) @ERR_set_error(i32 noundef 32, i32 noundef 121, ptr noundef null) #14
  br label %65

15:                                               ; preds = %10
  %16 = getelementptr inbounds nuw i8, ptr %0, i64 16
  %17 = load ptr, ptr %16, align 8, !tbaa !23
  %.not = icmp eq ptr %17, null
  %18 = getelementptr inbounds nuw i8, ptr %0, i64 24
  %19 = load ptr, ptr %18, align 8, !tbaa !24
  %.not31 = icmp eq ptr %19, null
  br i1 %.not, label %20, label %21

20:                                               ; preds = %15
  br i1 %.not31, label %27, label %.thread

21:                                               ; preds = %15
  br i1 %.not31, label %23, label %.thread

.thread:                                          ; preds = %20, %21
  %22 = tail call i64 %19(ptr noundef nonnull %0, i32 noundef 4, ptr noundef %1, i64 noundef 0, i32 noundef 0, i64 noundef 0, i32 noundef 1, ptr noundef null) #14
  br label %bio_call_callback.exit

23:                                               ; preds = %21
  %24 = tail call i64 %17(ptr noundef nonnull %0, i32 noundef 4, ptr noundef %1, i32 noundef 0, i64 noundef 0, i64 noundef 1) #14
  br label %bio_call_callback.exit

bio_call_callback.exit:                           ; preds = %23, %.thread
  %.0.i = phi i64 [ %22, %.thread ], [ %24, %23 ]
  %25 = trunc i64 %.0.i to i32
  %26 = icmp slt i32 %25, 1
  br i1 %26, label %65, label %27

27:                                               ; preds = %bio_call_callback.exit, %20
  %28 = getelementptr inbounds nuw i8, ptr %0, i64 40
  %29 = load i32, ptr %28, align 8, !tbaa !22
  %.not32 = icmp eq i32 %29, 0
  br i1 %.not32, label %30, label %31

30:                                               ; preds = %27
  tail call void @ERR_new() #14
  tail call void @ERR_set_debug(ptr noundef nonnull @.str, i32 noundef 519, ptr noundef nonnull @__func__.BIO_puts) #14
  tail call void (i32, i32, ptr, ...) @ERR_set_error(i32 noundef 32, i32 noundef 120, ptr noundef null) #14
  br label %65

31:                                               ; preds = %27
  %32 = load ptr, ptr %7, align 8, !tbaa !17
  %33 = getelementptr inbounds nuw i8, ptr %32, i64 48
  %34 = load ptr, ptr %33, align 8, !tbaa !47
  %35 = tail call i32 %34(ptr noundef nonnull %0, ptr noundef %1) #14
  %36 = icmp sgt i32 %35, 0
  br i1 %36, label %37, label %42

37:                                               ; preds = %31
  %38 = zext nneg i32 %35 to i64
  %39 = getelementptr inbounds nuw i8, ptr %0, i64 104
  %40 = load i64, ptr %39, align 8, !tbaa !35
  %41 = add i64 %40, %38
  store i64 %41, ptr %39, align 8, !tbaa !35
  store i64 %38, ptr %3, align 8, !tbaa !32
  br label %42

42:                                               ; preds = %37, %31
  %43 = phi i64 [ %38, %37 ], [ 0, %31 ]
  %.0 = phi i32 [ 1, %37 ], [ %35, %31 ]
  %44 = load ptr, ptr %16, align 8, !tbaa !23
  %.not33 = icmp eq ptr %44, null
  %45 = getelementptr inbounds nuw i8, ptr %0, i64 24
  %46 = load ptr, ptr %45, align 8, !tbaa !24
  %.not34 = icmp eq ptr %46, null
  br i1 %.not33, label %47, label %48

47:                                               ; preds = %42
  br i1 %.not34, label %57, label %.thread42

48:                                               ; preds = %42
  br i1 %.not34, label %50, label %.thread42

.thread42:                                        ; preds = %47, %48
  %49 = call i64 %46(ptr noundef nonnull %0, i32 noundef 132, ptr noundef %1, i64 noundef 0, i32 noundef 0, i64 noundef 0, i32 noundef %.0, ptr noundef nonnull %3) #14
  br label %bio_call_callback.exit37

50:                                               ; preds = %48
  %51 = sext i32 %.0 to i64
  %52 = icmp sgt i32 %.0, 0
  %spec.select = select i1 %52, i64 %43, i64 %51
  %53 = tail call i64 %44(ptr noundef nonnull %0, i32 noundef 132, ptr noundef %1, i32 noundef 0, i64 noundef 0, i64 noundef %spec.select) #14
  %54 = icmp sgt i64 %53, 0
  br i1 %54, label %55, label %bio_call_callback.exit37

55:                                               ; preds = %50
  store i64 %53, ptr %3, align 8, !tbaa !32
  br label %bio_call_callback.exit37

bio_call_callback.exit37:                         ; preds = %.thread42, %50, %55
  %.0.i36 = phi i64 [ %49, %.thread42 ], [ 1, %55 ], [ %53, %50 ]
  %56 = trunc i64 %.0.i36 to i32
  br label %57

57:                                               ; preds = %bio_call_callback.exit37, %47
  %.1 = phi i32 [ %56, %bio_call_callback.exit37 ], [ %.0, %47 ]
  %58 = icmp sgt i32 %.1, 0
  br i1 %58, label %59, label %65

59:                                               ; preds = %57
  %60 = load i64, ptr %3, align 8, !tbaa !32
  %61 = icmp ugt i64 %60, 2147483647
  br i1 %61, label %62, label %63

62:                                               ; preds = %59
  call void @ERR_new() #14
  call void @ERR_set_debug(ptr noundef nonnull @.str, i32 noundef 537, ptr noundef nonnull @__func__.BIO_puts) #14
  call void (i32, i32, ptr, ...) @ERR_set_error(i32 noundef 32, i32 noundef 102, ptr noundef null) #14
  br label %65

63:                                               ; preds = %59
  %64 = trunc nuw nsw i64 %60 to i32
  br label %65

65:                                               ; preds = %57, %63, %62, %bio_call_callback.exit, %30, %14, %5
  %.024 = phi i32 [ -1, %5 ], [ -2, %14 ], [ -1, %30 ], [ %25, %bio_call_callback.exit ], [ -1, %62 ], [ %64, %63 ], [ %.1, %57 ]
  call void @llvm.lifetime.end.p0(i64 8, ptr nonnull %3) #14
  ret i32 %.024
}